ccopy_reg
_reconstructor
p0
(csklearn.pipeline
Pipeline
p1
c__builtin__
object
p2
Ntp3
Rp4
(dp5
S'_sklearn_version'
p6
S'0.19.1'
p7
sS'steps'
p8
(lp9
(S'standardscaler'
p10
g0
(csklearn.preprocessing.data
StandardScaler
p11
g2
Ntp12
Rp13
(dp14
S'copy'
p15
I01
sg6
g7
sS'with_mean'
p16
I01
sS'with_std'
p17
I01
sbtp18
a(S'functiontransformer'
p19
g0
(csklearn.preprocessing._function_transformer
FunctionTransformer
p20
g2
Ntp21
Rp22
(dp23
S'kw_args'
p24
NsS'inverse_func'
p25
NsS'pass_y'
p26
S'deprecated'
p27
sS'inv_kw_args'
p28
Nsg6
g7
sS'func'
p29
c__main__
add_squared_col
p30
sS'validate'
p31
I01
sS'accept_sparse'
p32
I00
sbtp33
a(S'decisiontreeregressor'
p34
g0
(csklearn.tree.tree
DecisionTreeRegressor
p35
g2
Ntp36
Rp37
(dp38
S'presort'
p39
I00
sS'splitter'
p40
S'best'
p41
sS'min_impurity_decrease'
p42
F0.0
sS'min_impurity_split'
p43
NsS'min_samples_leaf'
p44
I1
sS'max_features'
p45
NsS'random_state'
p46
NsS'criterion'
p47
S'mse'
p48
sS'min_weight_fraction_leaf'
p49
F0.0
sS'max_leaf_nodes'
p50
NsS'min_samples_split'
p51
I2
sg6
g7
sS'max_depth'
p52
NsS'class_weight'
p53
Nsbtp54
asS'memory'
p55
Nsb.