ccopy_reg
_reconstructor
p0
(csklearn.pipeline
Pipeline
p1
c__builtin__
object
p2
Ntp3
Rp4
(dp5
S'_sklearn_version'
p6
S'0.19.1'
p7
sS'steps'
p8
(lp9
(S'standardscaler'
p10
g0
(csklearn.preprocessing.data
StandardScaler
p11
g2
Ntp12
Rp13
(dp14
S'mean_'
p15
cnumpy.core.multiarray
_reconstruct
p16
(cnumpy
ndarray
p17
(I0
tp18
S'b'
p19
tp20
Rp21
(I1
(I1
tp22
cnumpy
dtype
p23
(S'f8'
p24
I0
I1
tp25
Rp26
(I3
S'<'
p27
NNNI-1
I-1
I0
tp28
bI00
S'\xbe\xf9\x8d\xd9\xbc\x15BA'
p29
tp30
bsS'with_mean'
p31
I01
sS'var_'
p32
g16
(g17
(I0
tp33
g19
tp34
Rp35
(I1
(I1
tp36
g26
I00
S'\xe1\x8f\x07\x08Qc\xb9B'
p37
tp38
bsS'scale_'
p39
g16
(g17
(I0
tp40
g19
tp41
Rp42
(I1
(I1
tp43
g26
I00
S"\n\xc9S\xdc\x92'TA"
p44
tp45
bsS'with_std'
p46
I01
sS'n_samples_seen_'
p47
I10148
sg6
g7
sS'copy'
p48
I01
sbtp49
a(S'linearregression'
p50
g0
(csklearn.linear_model.base
LinearRegression
p51
g2
Ntp52
Rp53
(dp54
S'normalize'
p55
I01
sS'n_jobs'
p56
I1
sS'rank_'
p57
I1
sS'fit_intercept'
p58
I01
sS'_residues'
p59
g16
(g17
(I0
tp60
g19
tp61
Rp62
(I1
(I1
tp63
g26
I00
S'\x06L\xd5\x91\x8fo\x0cA'
p64
tp65
bsS'coef_'
p66
g16
(g17
(I0
tp67
g19
tp68
Rp69
(I1
(I1
I1
tp70
g26
I00
S'N\x9f\xeb1\x0c>\x10@'
p71
tp72
bsg6
g7
sS'copy_X'
p73
I01
sS'intercept_'
p74
g16
(g17
(I0
tp75
g19
tp76
Rp77
(I1
(I1
tp78
g26
I00
S'\xdd\xe5\nt2\xacP@'
p79
tp80
bsS'singular_'
p81
g16
(g17
(I0
tp82
g19
tp83
Rp84
(I1
(I1
tp85
g26
I00
S'\x00\x00\x00\x00\x00\x00\xf0?'
p86
tp87
bsbtp88
asS'memory'
p89
Nsb.