ccopy_reg
_reconstructor
p0
(csklearn.pipeline
Pipeline
p1
c__builtin__
object
p2
Ntp3
Rp4
(dp5
S'_sklearn_version'
p6
S'0.19.1'
p7
sS'steps'
p8
(lp9
(S'standardscaler'
p10
g0
(csklearn.preprocessing.data
StandardScaler
p11
g2
Ntp12
Rp13
(dp14
S'copy'
p15
I01
sg6
g7
sS'with_mean'
p16
I01
sS'with_std'
p17
I01
sbtp18
a(S'functiontransformer'
p19
g0
(csklearn.preprocessing._function_transformer
FunctionTransformer
p20
g2
Ntp21
Rp22
(dp23
S'kw_args'
p24
NsS'inverse_func'
p25
NsS'pass_y'
p26
S'deprecated'
p27
sS'inv_kw_args'
p28
Nsg6
g7
sS'func'
p29
c__main__
add_squared_col
p30
sS'validate'
p31
I01
sS'accept_sparse'
p32
I00
sbtp33
a(S'passiveaggressiveclassifier'
p34
g0
(csklearn.linear_model.passive_aggressive
PassiveAggressiveClassifier
p35
g2
Ntp36
Rp37
(dp38
S'warm_start'
p39
I00
sS'n_iter'
p40
NsS'C'
p41
F1.0
sS'n_jobs'
p42
I1
sS'shuffle'
p43
I01
sS'verbose'
p44
I0
sS'loss'
p45
S'hinge'
p46
sS'epsilon'
p47
F0.1
sS'learning_rate'
p48
S'optimal'
p49
sS'max_iter'
p50
NsS'penalty'
p51
NsS'average'
p52
I00
sS'random_state'
p53
Nsg6
g7
sS'eta0'
p54
F1.0
sS'tol'
p55
NsS'l1_ratio'
p56
F0.15
sS'alpha'
p57
F0.0001
sS'fit_intercept'
p58
I01
sS'power_t'
p59
F0.5
sS'class_weight'
p60
Nsbtp61
asS'memory'
p62
Nsb.