ccopy_reg
_reconstructor
p0
(csklearn.pipeline
Pipeline
p1
c__builtin__
object
p2
Ntp3
Rp4
(dp5
S'_sklearn_version'
p6
S'0.19.1'
p7
sS'steps'
p8
(lp9
(S'standardscaler'
p10
g0
(csklearn.preprocessing.data
StandardScaler
p11
g2
Ntp12
Rp13
(dp14
S'copy'
p15
I01
sg6
g7
sS'with_mean'
p16
I01
sS'with_std'
p17
I01
sbtp18
a(S'functiontransformer'
p19
g0
(csklearn.preprocessing._function_transformer
FunctionTransformer
p20
g2
Ntp21
Rp22
(dp23
S'kw_args'
p24
NsS'inverse_func'
p25
NsS'pass_y'
p26
S'deprecated'
p27
sS'inv_kw_args'
p28
Nsg6
g7
sS'func'
p29
c__main__
add_squared_col
p30
sS'validate'
p31
I01
sS'accept_sparse'
p32
I00
sbtp33
a(S'svr'
p34
g0
(csklearn.svm.classes
SVR
p35
g2
Ntp36
Rp37
(dp38
S'_impl'
p39
S'epsilon_svr'
p40
sS'kernel'
p41
S'rbf'
p42
sS'C'
p43
I100
sS'verbose'
p44
I00
sS'probability'
p45
I00
sS'coef0'
p46
F0.0
sS'epsilon'
p47
F0.1
sS'max_iter'
p48
I-1
sS'cache_size'
p49
I200
sS'random_state'
p50
Nsg6
g7
sS'tol'
p51
F0.001
sS'degree'
p52
I3
sS'shrinking'
p53
I01
sS'nu'
p54
F0.0
sS'gamma'
p55
F0.001
sS'class_weight'
p56
Nsbtp57
asS'memory'
p58
Nsb.