ccopy_reg
_reconstructor
p0
(csklearn.pipeline
Pipeline
p1
c__builtin__
object
p2
Ntp3
Rp4
(dp5
S'_sklearn_version'
p6
S'0.19.1'
p7
sS'steps'
p8
(lp9
(S'standardscaler'
p10
g0
(csklearn.preprocessing.data
StandardScaler
p11
g2
Ntp12
Rp13
(dp14
S'mean_'
p15
cnumpy.core.multiarray
_reconstruct
p16
(cnumpy
ndarray
p17
(I0
tp18
S'b'
p19
tp20
Rp21
(I1
(I1
tp22
cnumpy
dtype
p23
(S'f8'
p24
I0
I1
tp25
Rp26
(I3
S'<'
p27
NNNI-1
I-1
I0
tp28
bI00
S'\xbe\xf9\x8d\xd9\xbc\x15BA'
p29
tp30
bsS'with_mean'
p31
I01
sS'var_'
p32
g16
(g17
(I0
tp33
g19
tp34
Rp35
(I1
(I1
tp36
g26
I00
S'\xe1\x8f\x07\x08Qc\xb9B'
p37
tp38
bsS'scale_'
p39
g16
(g17
(I0
tp40
g19
tp41
Rp42
(I1
(I1
tp43
g26
I00
S"\n\xc9S\xdc\x92'TA"
p44
tp45
bsS'with_std'
p46
I01
sS'n_samples_seen_'
p47
I10148
sg6
g7
sS'copy'
p48
I01
sbtp49
a(S'ridge'
p50
g0
(csklearn.linear_model.ridge
Ridge
p51
g2
Ntp52
Rp53
(dp54
S'normalize'
p55
I00
sS'fit_intercept'
p56
I01
sS'solver'
p57
S'auto'
p58
sS'max_iter'
p59
NsS'n_iter_'
p60
NsS'random_state'
p61
Nsg6
g7
sS'tol'
p62
F0.001
sS'copy_X'
p63
I01
sS'alpha'
p64
F1.0
sS'coef_'
p65
g16
(g17
(I0
tp66
g19
tp67
Rp68
(I1
(I1
I1
tp69
g26
I00
S'D]\xceO\xa3=\x10@'
p70
tp71
bsS'intercept_'
p72
g16
(g17
(I0
tp73
g19
tp74
Rp75
(I1
(I1
tp76
g26
I00
S'\xdd\xe5\nt2\xacP@'
p77
tp78
bsbtp79
asS'memory'
p80
Nsb.